target datalayout = "e-m:e-p270:32:32-p271:32:32-p272:64:64-i64:64-i128:128-f80:128-n8:16:32:64-S128"
target triple = "x86_64-unknown-linux-gnu"

%class.anon.92 = type { ptr }
%"struct.__gnu_cxx::__ops::_Iter_comp_iter.187" = type { %class.anon.92 }

; Function Attrs: mustprogress uwtable
define internal void @"_ZSt21__inplace_stable_sortIPiN9__gnu_cxx5__ops15_Iter_comp_iterIZN8facebook5velox9MapVector12canonicalizeERKSt10shared_ptrIS6_EbE3$_0EEEvT_SD_T0_"(ptr noundef %__first, ptr noundef %__last, ptr %__comp.coerce) #0 {
entry:
  %__comp = alloca %"struct.__gnu_cxx::__ops::_Iter_comp_iter.187", align 8
  %__first.addr = alloca ptr, align 8
  %__last.addr = alloca ptr, align 8
  %agg.tmp = alloca %"struct.__gnu_cxx::__ops::_Iter_comp_iter.187", align 8
  %__middle = alloca ptr, align 8
  %agg.tmp8 = alloca %"struct.__gnu_cxx::__ops::_Iter_comp_iter.187", align 8
  %agg.tmp11 = alloca %"struct.__gnu_cxx::__ops::_Iter_comp_iter.187", align 8
  %agg.tmp22 = alloca %"struct.__gnu_cxx::__ops::_Iter_comp_iter.187", align 8
  %coerce.dive = getelementptr inbounds %"struct.__gnu_cxx::__ops::_Iter_comp_iter.187", ptr %__comp, i32 0, i32 0
  %coerce.dive1 = getelementptr inbounds %class.anon.92, ptr %coerce.dive, i32 0, i32 0
  store ptr %__comp.coerce, ptr %coerce.dive1, align 8
  store ptr %__first, ptr %__first.addr, align 8
  store ptr %__last, ptr %__last.addr, align 8
  %0 = load ptr, ptr %__last.addr, align 8
  %1 = load ptr, ptr %__first.addr, align 8
  %sub.ptr.lhs.cast = ptrtoint ptr %0 to i64
  %sub.ptr.rhs.cast = ptrtoint ptr %1 to i64
  %sub.ptr.sub = sub i64 %sub.ptr.lhs.cast, %sub.ptr.rhs.cast
  %sub.ptr.div = sdiv exact i64 %sub.ptr.sub, 4
  %cmp = icmp slt i64 %sub.ptr.div, 15
  br i1 %cmp, label %if.then, label %if.end

if.then:                                          ; preds = %entry
  %2 = load ptr, ptr %__first.addr, align 8
  %3 = load ptr, ptr %__last.addr, align 8
  call void @llvm.memcpy.p0.p0.i64(ptr align 8 %agg.tmp, ptr align 8 %__comp, i64 8, i1 false)
  %coerce.dive2 = getelementptr inbounds %"struct.__gnu_cxx::__ops::_Iter_comp_iter.187", ptr %agg.tmp, i32 0, i32 0
  %coerce.dive3 = getelementptr inbounds %class.anon.92, ptr %coerce.dive2, i32 0, i32 0
  %4 = load ptr, ptr %coerce.dive3, align 8
  call void @"_ZSt16__insertion_sortIPiN9__gnu_cxx5__ops15_Iter_comp_iterIZN8facebook5velox9MapVector12canonicalizeERKSt10shared_ptrIS6_EbE3$_0EEEvT_SD_T0_"(ptr noundef %2, ptr noundef %3, ptr %4)
  br label %return

if.end:                                           ; preds = %entry
  %5 = load ptr, ptr %__first.addr, align 8
  %6 = load ptr, ptr %__last.addr, align 8
  %7 = load ptr, ptr %__first.addr, align 8
  %sub.ptr.lhs.cast4 = ptrtoint ptr %6 to i64
  %sub.ptr.rhs.cast5 = ptrtoint ptr %7 to i64
  %sub.ptr.sub6 = sub i64 %sub.ptr.lhs.cast4, %sub.ptr.rhs.cast5
  %sub.ptr.div7 = sdiv exact i64 %sub.ptr.sub6, 4
  %div = sdiv i64 %sub.ptr.div7, 2
  %add.ptr = getelementptr inbounds i32, ptr %5, i64 %div
  store ptr %add.ptr, ptr %__middle, align 8
  %8 = load ptr, ptr %__first.addr, align 8
  %9 = load ptr, ptr %__middle, align 8
  call void @llvm.memcpy.p0.p0.i64(ptr align 8 %agg.tmp8, ptr align 8 %__comp, i64 8, i1 false)
  %coerce.dive9 = getelementptr inbounds %"struct.__gnu_cxx::__ops::_Iter_comp_iter.187", ptr %agg.tmp8, i32 0, i32 0
  %coerce.dive10 = getelementptr inbounds %class.anon.92, ptr %coerce.dive9, i32 0, i32 0
  %10 = load ptr, ptr %coerce.dive10, align 8
  call void @"_ZSt21__inplace_stable_sortIPiN9__gnu_cxx5__ops15_Iter_comp_iterIZN8facebook5velox9MapVector12canonicalizeERKSt10shared_ptrIS6_EbE3$_0EEEvT_SD_T0_"(ptr noundef %8, ptr noundef %9, ptr %10)
  %11 = load ptr, ptr %__middle, align 8
  %12 = load ptr, ptr %__last.addr, align 8
  call void @llvm.memcpy.p0.p0.i64(ptr align 8 %agg.tmp11, ptr align 8 %__comp, i64 8, i1 false)
  %coerce.dive12 = getelementptr inbounds %"struct.__gnu_cxx::__ops::_Iter_comp_iter.187", ptr %agg.tmp11, i32 0, i32 0
  %coerce.dive13 = getelementptr inbounds %class.anon.92, ptr %coerce.dive12, i32 0, i32 0
  %13 = load ptr, ptr %coerce.dive13, align 8
  call void @"_ZSt21__inplace_stable_sortIPiN9__gnu_cxx5__ops15_Iter_comp_iterIZN8facebook5velox9MapVector12canonicalizeERKSt10shared_ptrIS6_EbE3$_0EEEvT_SD_T0_"(ptr noundef %11, ptr noundef %12, ptr %13)
  %14 = load ptr, ptr %__first.addr, align 8
  %15 = load ptr, ptr %__middle, align 8
  %16 = load ptr, ptr %__last.addr, align 8
  %17 = load ptr, ptr %__middle, align 8
  %18 = load ptr, ptr %__first.addr, align 8
  %sub.ptr.lhs.cast14 = ptrtoint ptr %17 to i64
  %sub.ptr.rhs.cast15 = ptrtoint ptr %18 to i64
  %sub.ptr.sub16 = sub i64 %sub.ptr.lhs.cast14, %sub.ptr.rhs.cast15
  %sub.ptr.div17 = sdiv exact i64 %sub.ptr.sub16, 4
  %19 = load ptr, ptr %__last.addr, align 8
  %20 = load ptr, ptr %__middle, align 8
  %sub.ptr.lhs.cast18 = ptrtoint ptr %19 to i64
  %sub.ptr.rhs.cast19 = ptrtoint ptr %20 to i64
  %sub.ptr.sub20 = sub i64 %sub.ptr.lhs.cast18, %sub.ptr.rhs.cast19
  %sub.ptr.div21 = sdiv exact i64 %sub.ptr.sub20, 4
  call void @llvm.memcpy.p0.p0.i64(ptr align 8 %agg.tmp22, ptr align 8 %__comp, i64 8, i1 false)
  %coerce.dive23 = getelementptr inbounds %"struct.__gnu_cxx::__ops::_Iter_comp_iter.187", ptr %agg.tmp22, i32 0, i32 0
  %coerce.dive24 = getelementptr inbounds %class.anon.92, ptr %coerce.dive23, i32 0, i32 0
  %21 = load ptr, ptr %coerce.dive24, align 8
  call void @"_ZSt22__merge_without_bufferIPilN9__gnu_cxx5__ops15_Iter_comp_iterIZN8facebook5velox9MapVector12canonicalizeERKSt10shared_ptrIS6_EbE3$_0EEEvT_SD_SD_T0_SE_T1_"(ptr noundef %14, ptr noundef %15, ptr noundef %16, i64 noundef %sub.ptr.div17, i64 noundef %sub.ptr.div21, ptr %21)
  br label %return

return:                                           ; preds = %if.end, %if.then
  ret void
}