; Function Attrs: mustprogress uwtable
define internal fastcc void @"_ZSt21__inplace_stable_sortIPiN9__gnu_cxx5__ops15_Iter_comp_iterIZN8facebook5velox9MapVector12canonicalizeERKSt10shared_ptrIS6_EbE3$_0EEEvT_SD_T0_"(ptr noundef %__first, ptr noundef %__last, ptr %__comp.coerce) unnamed_addr #0 {
entry:
  %sub.ptr.lhs.cast = ptrtoint ptr %__last to i64
  %sub.ptr.rhs.cast = ptrtoint ptr %__first to i64
  %sub.ptr.sub = sub i64 %sub.ptr.lhs.cast, %sub.ptr.rhs.cast
  %sub.ptr.div = ashr exact i64 %sub.ptr.sub, 2
  %cmp = icmp slt i64 %sub.ptr.div, 15
  br i1 %cmp, label %if.then, label %if.end

if.then:                                          ; preds = %entry
  tail call fastcc void @"_ZSt16__insertion_sortIPiN9__gnu_cxx5__ops15_Iter_comp_iterIZN8facebook5velox9MapVector12canonicalizeERKSt10shared_ptrIS6_EbE3$_0EEEvT_SD_T0_"(ptr noundef %__first, ptr noundef %__last, ptr %__comp.coerce)
  br label %common.ret17

common.ret17:                                     ; preds = %if.end, %if.then
  ret void

if.end:                                           ; preds = %entry
  %div16 = lshr i64 %sub.ptr.div, 1
  %add.ptr = getelementptr inbounds i32, ptr %__first, i64 %div16
  tail call fastcc void @"_ZSt21__inplace_stable_sortIPiN9__gnu_cxx5__ops15_Iter_comp_iterIZN8facebook5velox9MapVector12canonicalizeERKSt10shared_ptrIS6_EbE3$_0EEEvT_SD_T0_"(ptr noundef %__first, ptr noundef %add.ptr, ptr %__comp.coerce)
  tail call fastcc void @"_ZSt21__inplace_stable_sortIPiN9__gnu_cxx5__ops15_Iter_comp_iterIZN8facebook5velox9MapVector12canonicalizeERKSt10shared_ptrIS6_EbE3$_0EEEvT_SD_T0_"(ptr noundef %add.ptr, ptr noundef %__last, ptr %__comp.coerce)
  %sub.ptr.lhs.cast14 = ptrtoint ptr %add.ptr to i64
  %sub.ptr.sub20 = sub i64 %sub.ptr.lhs.cast, %sub.ptr.lhs.cast14
  %sub.ptr.div21 = ashr exact i64 %sub.ptr.sub20, 2
  tail call fastcc void @"_ZSt22__merge_without_bufferIPilN9__gnu_cxx5__ops15_Iter_comp_iterIZN8facebook5velox9MapVector12canonicalizeERKSt10shared_ptrIS6_EbE3$_0EEEvT_SD_SD_T0_SE_T1_"(ptr noundef %__first, ptr noundef %add.ptr, ptr noundef %__last, i64 noundef %div16, i64 noundef %sub.ptr.div21, ptr %__comp.coerce)
  br label %common.ret17
}